; Function Attrs: null_pointer_is_valid sspstrong uwtable
define hidden i32 @dissect_ndr_nt_PSID_cb(ptr noundef %0, i32 noundef %1, ptr noundef %2, ptr noundef %3, ptr noundef %4, ptr noundef %5, ptr noundef %6, ptr noundef %7) local_unnamed_addr #0 {
  %9 = alloca ptr, align 8
  call void @llvm.lifetime.start.p0(i64 8, ptr nonnull %9) #9
  %10 = load i32, ptr @ett_nt_sid_pointer, align 4
  %11 = call ptr @proto_tree_add_subtree(ptr noundef %3, ptr noundef %0, i32 noundef %1, i32 noundef -1, i32 noundef %10, ptr noundef nonnull %9, ptr noundef nonnull @.str.17)
  %12 = load i32, ptr @hf_nt_domain_sid, align 4
  %13 = call i32 @dissect_ndr_pointer_cb(ptr noundef %0, i32 noundef %1, ptr noundef %2, ptr noundef %11, ptr noundef %4, ptr noundef %5, ptr noundef nonnull @dissect_ndr_nt_SID_hf_through_ptr, i32 noundef 2, ptr noundef nonnull @.str.17, i32 noundef %12, ptr noundef %6, ptr noundef %7)
  %14 = load ptr, ptr %9, align 8
  %15 = sub i32 %13, %1
  call void @proto_item_set_len(ptr noundef %14, i32 noundef %15)
  call void @llvm.lifetime.end.p0(i64 8, ptr nonnull %9) #9
  ret i32 %13
}